; ModuleID = '55/880.c'
source_filename = "55/880.c"
target datalayout = "e-m:e-p270:32:32-p271:32:32-p272:64:64-i64:64-f80:128-n8:16:32:64-S128"
target triple = "x86_64-pc-linux-gnu"

@.str = private unnamed_addr constant [9 x i8] c"%d %s %d\00", align 1

; Function Attrs: noinline nounwind uwtable
define dso_local i32 @main() #0 {
  %1 = alloca i32, align 4
  %2 = alloca i32, align 4
  %3 = alloca i32, align 4
  %4 = alloca i32, align 4
  %5 = alloca i32, align 4
  %6 = alloca i32, align 4
  %7 = alloca i32, align 4
  %8 = alloca i32, align 4
  %9 = alloca [40 x i8], align 16
  %10 = alloca [40 x i8], align 16
  %11 = alloca i8*, align 8
  %12 = alloca i64, align 8
  store i32 0, i32* %1, align 4
  store i32 0, i32* %5, align 4
  %13 = getelementptr inbounds [40 x i8], [40 x i8]* %9, i64 0, i64 0
  %14 = call i32 (i8*, ...) @__isoc99_scanf(i8* getelementptr inbounds ([9 x i8], [9 x i8]* @.str, i64 0, i64 0), i32* %2, i8* %13, i32* %3)
  %15 = getelementptr inbounds [40 x i8], [40 x i8]* %9, i64 0, i64 0
  %16 = call i64 @strlen(i8* %15) #5
  %17 = trunc i64 %16 to i32
  store i32 %17, i32* %6, align 4
  store i32 0, i32* %4, align 4
  br label %18

18:                                               ; preds = %80, %0
  %19 = load i32, i32* %4, align 4
  %20 = load i32, i32* %6, align 4
  %21 = icmp slt i32 %19, %20
  br i1 %21, label %22, label %83

22:                                               ; preds = %18
  %23 = load i32, i32* %4, align 4
  %24 = sext i32 %23 to i64
  %25 = getelementptr inbounds [40 x i8], [40 x i8]* %9, i64 0, i64 %24
  %26 = load i8, i8* %25, align 1
  %27 = sext i8 %26 to i32
  %28 = icmp sge i32 %27, 97
  br i1 %28, label %29, label %41

29:                                               ; preds = %22
  %30 = load i32, i32* %4, align 4
  %31 = sext i32 %30 to i64
  %32 = getelementptr inbounds [40 x i8], [40 x i8]* %9, i64 0, i64 %31
  %33 = load i8, i8* %32, align 1
  %34 = sext i8 %33 to i32
  %35 = add nsw i32 %34, 65
  %36 = sub nsw i32 %35, 97
  %37 = trunc i32 %36 to i8
  %38 = load i32, i32* %4, align 4
  %39 = sext i32 %38 to i64
  %40 = getelementptr inbounds [40 x i8], [40 x i8]* %9, i64 0, i64 %39
  store i8 %37, i8* %40, align 1
  br label %41

41:                                               ; preds = %29, %22
  %42 = load i32, i32* %4, align 4
  %43 = sext i32 %42 to i64
  %44 = getelementptr inbounds [40 x i8], [40 x i8]* %9, i64 0, i64 %43
  %45 = load i8, i8* %44, align 1
  %46 = sext i8 %45 to i32
  %47 = icmp sge i32 %46, 65
  br i1 %47, label %48, label %60

48:                                               ; preds = %41
  %49 = load i32, i32* %4, align 4
  %50 = sext i32 %49 to i64
  %51 = getelementptr inbounds [40 x i8], [40 x i8]* %9, i64 0, i64 %50
  %52 = load i8, i8* %51, align 1
  %53 = sext i8 %52 to i32
  %54 = add nsw i32 %53, 10
  %55 = sub nsw i32 %54, 65
  %56 = load i32, i32* %5, align 4
  %57 = load i32, i32* %2, align 4
  %58 = mul nsw i32 %56, %57
  %59 = add nsw i32 %55, %58
  store i32 %59, i32* %5, align 4
  br label %79

60:                                               ; preds = %41
  %61 = load i32, i32* %4, align 4
  %62 = sext i32 %61 to i64
  %63 = getelementptr inbounds [40 x i8], [40 x i8]* %9, i64 0, i64 %62
  %64 = load i8, i8* %63, align 1
  %65 = sext i8 %64 to i32
  %66 = icmp sle i32 %65, 57
  br i1 %66, label %67, label %78

67:                                               ; preds = %60
  %68 = load i32, i32* %4, align 4
  %69 = sext i32 %68 to i64
  %70 = getelementptr inbounds [40 x i8], [40 x i8]* %9, i64 0, i64 %69
  %71 = load i8, i8* %70, align 1
  %72 = sext i8 %71 to i32
  %73 = sub nsw i32 %72, 48
  %74 = load i32, i32* %5, align 4
  %75 = load i32, i32* %2, align 4
  %76 = mul nsw i32 %74, %75
  %77 = add nsw i32 %73, %76
  store i32 %77, i32* %5, align 4
  br label %78

78:                                               ; preds = %67, %60
  br label %79

79:                                               ; preds = %78, %48
  br label %80

80:                                               ; preds = %79
  %81 = load i32, i32* %4, align 4
  %82 = add nsw i32 %81, 1
  store i32 %82, i32* %4, align 4
  br label %18

83:                                               ; preds = %18
  %84 = bitcast [40 x i8]* %10 to i8*
  call void @llvm.memset.p0i8.i64(i8* align 16 %84, i8 0, i64 40, i1 false)
  %85 = load i32, i32* %5, align 4
  store i32 %85, i32* %8, align 4
  store i32 0, i32* %4, align 4
  br label %86

86:                                               ; preds = %117, %83
  %87 = load i32, i32* %8, align 4
  %88 = load i32, i32* %3, align 4
  %89 = srem i32 %87, %88
  store i32 %89, i32* %7, align 4
  %90 = load i32, i32* %8, align 4
  %91 = load i32, i32* %3, align 4
  %92 = sdiv i32 %90, %91
  store i32 %92, i32* %8, align 4
  %93 = load i32, i32* %7, align 4
  %94 = icmp sle i32 %93, 9
  br i1 %94, label %95, label %102

95:                                               ; preds = %86
  %96 = load i32, i32* %7, align 4
  %97 = add nsw i32 %96, 48
  %98 = trunc i32 %97 to i8
  %99 = load i32, i32* %4, align 4
  %100 = sext i32 %99 to i64
  %101 = getelementptr inbounds [40 x i8], [40 x i8]* %10, i64 0, i64 %100
  store i8 %98, i8* %101, align 1
  br label %110

102:                                              ; preds = %86
  %103 = load i32, i32* %7, align 4
  %104 = sub nsw i32 %103, 10
  %105 = add nsw i32 %104, 65
  %106 = trunc i32 %105 to i8
  %107 = load i32, i32* %4, align 4
  %108 = sext i32 %107 to i64
  %109 = getelementptr inbounds [40 x i8], [40 x i8]* %10, i64 0, i64 %108
  store i8 %106, i8* %109, align 1
  br label %110

110:                                              ; preds = %102, %95
  %111 = load i32, i32* %4, align 4
  %112 = add nsw i32 %111, 1
  store i32 %112, i32* %6, align 4
  %113 = load i32, i32* %8, align 4
  %114 = icmp eq i32 %113, 0
  br i1 %114, label %115, label %116

115:                                              ; preds = %110
  br label %120

116:                                              ; preds = %110
  br label %117

117:                                              ; preds = %116
  %118 = load i32, i32* %4, align 4
  %119 = add nsw i32 %118, 1
  store i32 %119, i32* %4, align 4
  br label %86

120:                                              ; preds = %115
  %121 = load i32, i32* %6, align 4
  %122 = zext i32 %121 to i64
  %123 = call i8* @llvm.stacksave()
  store i8* %123, i8** %11, align 8
  %124 = alloca i8, i64 %122, align 16
  store i64 %122, i64* %12, align 8
  store i32 0, i32* %4, align 4
  br label %125

125:                                              ; preds = %141, %120
  %126 = load i32, i32* %4, align 4
  %127 = load i32, i32* %6, align 4
  %128 = sub nsw i32 %127, 1
  %129 = icmp sle i32 %126, %128
  br i1 %129, label %130, label %144

130:                                              ; preds = %125
  %131 = load i32, i32* %4, align 4
  %132 = sext i32 %131 to i64
  %133 = getelementptr inbounds [40 x i8], [40 x i8]* %10, i64 0, i64 %132
  %134 = load i8, i8* %133, align 1
  %135 = load i32, i32* %6, align 4
  %136 = sub nsw i32 %135, 1
  %137 = load i32, i32* %4, align 4
  %138 = sub nsw i32 %136, %137
  %139 = sext i32 %138 to i64
  %140 = getelementptr inbounds i8, i8* %124, i64 %139
  store i8 %134, i8* %140, align 1
  br label %141

141:                                              ; preds = %130
  %142 = load i32, i32* %4, align 4
  %143 = add nsw i32 %142, 1
  store i32 %143, i32* %4, align 4
  br label %125

144:                                              ; preds = %125
  %145 = load i32, i32* %6, align 4
  %146 = sext i32 %145 to i64
  %147 = getelementptr inbounds i8, i8* %124, i64 %146
  store i8 0, i8* %147, align 1
  %148 = call i32 @puts(i8* %124)
  %149 = load i8*, i8** %11, align 8
  call void @llvm.stackrestore(i8* %149)
  %150 = load i32, i32* %1, align 4
  ret i32 %150
}

declare dso_local i32 @__isoc99_scanf(i8*, ...) #1

; Function Attrs: nounwind readonly
declare dso_local i64 @strlen(i8*) #2

; Function Attrs: argmemonly nounwind willreturn
declare void @llvm.memset.p0i8.i64(i8* nocapture writeonly, i8, i64, i1 immarg) #3

; Function Attrs: nounwind
declare i8* @llvm.stacksave() #4

declare dso_local i32 @puts(i8*) #1

; Function Attrs: nounwind
declare void @llvm.stackrestore(i8*) #4


!llvm.module.flags = !{!0}
!llvm.ident = !{!1}

!0 = !{i32 1, !"wchar_size", i32 4}
!1 = !{!"clang version 10.0.0-4ubuntu1 "}
